; ModuleID = '36/319.c'
source_filename = "36/319.c"
target datalayout = "e-m:e-p270:32:32-p271:32:32-p272:64:64-i64:64-f80:128-n8:16:32:64-S128"
target triple = "x86_64-pc-linux-gnu"

@.str = private unnamed_addr constant [5 x i8] c"%s%s\00", align 1
@.str.1 = private unnamed_addr constant [3 x i8] c"NO\00", align 1
@.str.2 = private unnamed_addr constant [4 x i8] c"YES\00", align 1

; Function Attrs: noinline nounwind uwtable
define dso_local void @rank(i8* %0) #0 {
  %2 = alloca i8*, align 8
  %3 = alloca i32, align 4
  %4 = alloca i32, align 4
  %5 = alloca i8, align 1
  store i8* %0, i8** %2, align 8
  br label %6

6:                                                ; preds = %58, %1
  %7 = load i8*, i8** %2, align 8
  %8 = load i8, i8* %7, align 1
  %9 = sext i8 %8 to i32
  %10 = icmp ne i32 %9, 0
  br i1 %10, label %11, label %61

11:                                               ; preds = %6
  store i32 0, i32* %4, align 4
  store i32 1, i32* %3, align 4
  br label %12

12:                                               ; preds = %37, %11
  %13 = load i8*, i8** %2, align 8
  %14 = load i32, i32* %3, align 4
  %15 = sext i32 %14 to i64
  %16 = getelementptr inbounds i8, i8* %13, i64 %15
  %17 = load i8, i8* %16, align 1
  %18 = sext i8 %17 to i32
  %19 = icmp ne i32 %18, 0
  br i1 %19, label %20, label %40

20:                                               ; preds = %12
  %21 = load i8*, i8** %2, align 8
  %22 = load i32, i32* %4, align 4
  %23 = sext i32 %22 to i64
  %24 = getelementptr inbounds i8, i8* %21, i64 %23
  %25 = load i8, i8* %24, align 1
  %26 = sext i8 %25 to i32
  %27 = load i8*, i8** %2, align 8
  %28 = load i32, i32* %3, align 4
  %29 = sext i32 %28 to i64
  %30 = getelementptr inbounds i8, i8* %27, i64 %29
  %31 = load i8, i8* %30, align 1
  %32 = sext i8 %31 to i32
  %33 = icmp sgt i32 %26, %32
  br i1 %33, label %34, label %36

34:                                               ; preds = %20
  %35 = load i32, i32* %3, align 4
  store i32 %35, i32* %4, align 4
  br label %36

36:                                               ; preds = %34, %20
  br label %37

37:                                               ; preds = %36
  %38 = load i32, i32* %3, align 4
  %39 = add nsw i32 %38, 1
  store i32 %39, i32* %3, align 4
  br label %12

40:                                               ; preds = %12
  %41 = load i32, i32* %4, align 4
  %42 = icmp ne i32 %41, 0
  br i1 %42, label %43, label %57

43:                                               ; preds = %40
  %44 = load i8*, i8** %2, align 8
  %45 = load i8, i8* %44, align 1
  store i8 %45, i8* %5, align 1
  %46 = load i8*, i8** %2, align 8
  %47 = load i32, i32* %4, align 4
  %48 = sext i32 %47 to i64
  %49 = getelementptr inbounds i8, i8* %46, i64 %48
  %50 = load i8, i8* %49, align 1
  %51 = load i8*, i8** %2, align 8
  store i8 %50, i8* %51, align 1
  %52 = load i8, i8* %5, align 1
  %53 = load i8*, i8** %2, align 8
  %54 = load i32, i32* %4, align 4
  %55 = sext i32 %54 to i64
  %56 = getelementptr inbounds i8, i8* %53, i64 %55
  store i8 %52, i8* %56, align 1
  br label %57

57:                                               ; preds = %43, %40
  br label %58

58:                                               ; preds = %57
  %59 = load i8*, i8** %2, align 8
  %60 = getelementptr inbounds i8, i8* %59, i32 1
  store i8* %60, i8** %2, align 8
  br label %6

61:                                               ; preds = %6
  ret void
}

; Function Attrs: noinline nounwind uwtable
define dso_local void @main() #0 {
  %1 = alloca [100 x i8], align 16
  %2 = alloca [100 x i8], align 16
  %3 = alloca i8*, align 8
  %4 = alloca i8*, align 8
  %5 = alloca i32, align 4
  store i32 0, i32* %5, align 4
  %6 = getelementptr inbounds [100 x i8], [100 x i8]* %1, i64 0, i64 0
  %7 = getelementptr inbounds [100 x i8], [100 x i8]* %2, i64 0, i64 0
  %8 = call i32 (i8*, ...) @__isoc99_scanf(i8* getelementptr inbounds ([5 x i8], [5 x i8]* @.str, i64 0, i64 0), i8* %6, i8* %7)
  %9 = getelementptr inbounds [100 x i8], [100 x i8]* %1, i64 0, i64 0
  store i8* %9, i8** %3, align 8
  %10 = getelementptr inbounds [100 x i8], [100 x i8]* %2, i64 0, i64 0
  store i8* %10, i8** %4, align 8
  %11 = load i8*, i8** %3, align 8
  call void @rank(i8* %11)
  %12 = load i8*, i8** %4, align 8
  call void @rank(i8* %12)
  %13 = getelementptr inbounds [100 x i8], [100 x i8]* %1, i64 0, i64 0
  store i8* %13, i8** %3, align 8
  %14 = getelementptr inbounds [100 x i8], [100 x i8]* %2, i64 0, i64 0
  store i8* %14, i8** %4, align 8
  br label %15

15:                                               ; preds = %31, %0
  %16 = load i8*, i8** %3, align 8
  %17 = load i8, i8* %16, align 1
  %18 = sext i8 %17 to i32
  %19 = icmp ne i32 %18, 0
  br i1 %19, label %20, label %36

20:                                               ; preds = %15
  %21 = load i8*, i8** %3, align 8
  %22 = load i8, i8* %21, align 1
  %23 = sext i8 %22 to i32
  %24 = load i8*, i8** %4, align 8
  %25 = load i8, i8* %24, align 1
  %26 = sext i8 %25 to i32
  %27 = icmp ne i32 %23, %26
  br i1 %27, label %28, label %30

28:                                               ; preds = %20
  %29 = call i32 (i8*, ...) @printf(i8* getelementptr inbounds ([3 x i8], [3 x i8]* @.str.1, i64 0, i64 0))
  store i32 1, i32* %5, align 4
  br label %36

30:                                               ; preds = %20
  br label %31

31:                                               ; preds = %30
  %32 = load i8*, i8** %3, align 8
  %33 = getelementptr inbounds i8, i8* %32, i32 1
  store i8* %33, i8** %3, align 8
  %34 = load i8*, i8** %4, align 8
  %35 = getelementptr inbounds i8, i8* %34, i32 1
  store i8* %35, i8** %4, align 8
  br label %15

36:                                               ; preds = %28, %15
  %37 = load i32, i32* %5, align 4
  %38 = icmp eq i32 %37, 0
  br i1 %38, label %39, label %41

39:                                               ; preds = %36
  %40 = call i32 (i8*, ...) @printf(i8* getelementptr inbounds ([4 x i8], [4 x i8]* @.str.2, i64 0, i64 0))
  br label %41

41:                                               ; preds = %39, %36
  ret void
}

declare dso_local i32 @__isoc99_scanf(i8*, ...) #1

declare dso_local i32 @printf(i8*, ...) #1


!llvm.module.flags = !{!0}
!llvm.ident = !{!1}

!0 = !{i32 1, !"wchar_size", i32 4}
!1 = !{!"clang version 10.0.0-4ubuntu1 "}
